
LED Sequence V3.0 MISRA compliant.elf:     file format elf32-avr

Sections:
Idx Name          Size      VMA       LMA       File off  Algn
  0 .text         00000448  00000000  00000000  00000074  2**1
                  CONTENTS, ALLOC, LOAD, READONLY, CODE
  1 .data         00000000  00800060  00800060  000004bc  2**0
                  CONTENTS, ALLOC, LOAD, DATA
  2 .bss          00000010  00800060  00800060  000004bc  2**0
                  ALLOC
  3 .comment      00000030  00000000  00000000  000004bc  2**0
                  CONTENTS, READONLY
  4 .note.gnu.avr.deviceinfo 0000003c  00000000  00000000  000004ec  2**2
                  CONTENTS, READONLY
  5 .debug_aranges 00000240  00000000  00000000  00000528  2**0
                  CONTENTS, READONLY, DEBUGGING
  6 .debug_info   000016f1  00000000  00000000  00000768  2**0
                  CONTENTS, READONLY, DEBUGGING
  7 .debug_abbrev 000009cb  00000000  00000000  00001e59  2**0
                  CONTENTS, READONLY, DEBUGGING
  8 .debug_line   00000e89  00000000  00000000  00002824  2**0
                  CONTENTS, READONLY, DEBUGGING
  9 .debug_frame  00000708  00000000  00000000  000036b0  2**2
                  CONTENTS, READONLY, DEBUGGING
 10 .debug_str    00000e8a  00000000  00000000  00003db8  2**0
                  CONTENTS, READONLY, DEBUGGING
 11 .debug_loc    000013f3  00000000  00000000  00004c42  2**0
                  CONTENTS, READONLY, DEBUGGING
 12 .debug_ranges 00000200  00000000  00000000  00006035  2**0
                  CONTENTS, READONLY, DEBUGGING

Disassembly of section .text:

00000000 <__vectors>:
   0:	0c 94 2a 00 	jmp	0x54	; 0x54 <__ctors_end>
   4:	0c 94 da 00 	jmp	0x1b4	; 0x1b4 <__vector_1>
   8:	0c 94 03 01 	jmp	0x206	; 0x206 <__vector_2>
   c:	0c 94 2c 01 	jmp	0x258	; 0x258 <__vector_3>
  10:	0c 94 47 00 	jmp	0x8e	; 0x8e <__bad_interrupt>
  14:	0c 94 f9 01 	jmp	0x3f2	; 0x3f2 <__vector_5>
  18:	0c 94 d0 01 	jmp	0x3a0	; 0x3a0 <__vector_6>
  1c:	0c 94 47 00 	jmp	0x8e	; 0x8e <__bad_interrupt>
  20:	0c 94 a7 01 	jmp	0x34e	; 0x34e <__vector_8>
  24:	0c 94 7e 01 	jmp	0x2fc	; 0x2fc <__vector_9>
  28:	0c 94 47 00 	jmp	0x8e	; 0x8e <__bad_interrupt>
  2c:	0c 94 55 01 	jmp	0x2aa	; 0x2aa <__vector_11>
  30:	0c 94 47 00 	jmp	0x8e	; 0x8e <__bad_interrupt>
  34:	0c 94 47 00 	jmp	0x8e	; 0x8e <__bad_interrupt>
  38:	0c 94 47 00 	jmp	0x8e	; 0x8e <__bad_interrupt>
  3c:	0c 94 47 00 	jmp	0x8e	; 0x8e <__bad_interrupt>
  40:	0c 94 47 00 	jmp	0x8e	; 0x8e <__bad_interrupt>
  44:	0c 94 47 00 	jmp	0x8e	; 0x8e <__bad_interrupt>
  48:	0c 94 47 00 	jmp	0x8e	; 0x8e <__bad_interrupt>
  4c:	0c 94 47 00 	jmp	0x8e	; 0x8e <__bad_interrupt>
  50:	0c 94 47 00 	jmp	0x8e	; 0x8e <__bad_interrupt>

00000054 <__ctors_end>:
  54:	11 24       	eor	r1, r1
  56:	1f be       	out	0x3f, r1	; 63
  58:	cf e5       	ldi	r28, 0x5F	; 95
  5a:	d8 e0       	ldi	r29, 0x08	; 8
  5c:	de bf       	out	0x3e, r29	; 62
  5e:	cd bf       	out	0x3d, r28	; 61

00000060 <__do_copy_data>:
  60:	10 e0       	ldi	r17, 0x00	; 0
  62:	a0 e6       	ldi	r26, 0x60	; 96
  64:	b0 e0       	ldi	r27, 0x00	; 0
  66:	e8 e4       	ldi	r30, 0x48	; 72
  68:	f4 e0       	ldi	r31, 0x04	; 4
  6a:	02 c0       	rjmp	.+4      	; 0x70 <__do_copy_data+0x10>
  6c:	05 90       	lpm	r0, Z+
  6e:	0d 92       	st	X+, r0
  70:	a0 36       	cpi	r26, 0x60	; 96
  72:	b1 07       	cpc	r27, r17
  74:	d9 f7       	brne	.-10     	; 0x6c <__do_copy_data+0xc>

00000076 <__do_clear_bss>:
  76:	20 e0       	ldi	r18, 0x00	; 0
  78:	a0 e6       	ldi	r26, 0x60	; 96
  7a:	b0 e0       	ldi	r27, 0x00	; 0
  7c:	01 c0       	rjmp	.+2      	; 0x80 <.do_clear_bss_start>

0000007e <.do_clear_bss_loop>:
  7e:	1d 92       	st	X+, r1

00000080 <.do_clear_bss_start>:
  80:	a0 37       	cpi	r26, 0x70	; 112
  82:	b2 07       	cpc	r27, r18
  84:	e1 f7       	brne	.-8      	; 0x7e <.do_clear_bss_loop>
  86:	0e 94 49 00 	call	0x92	; 0x92 <main>
  8a:	0c 94 22 02 	jmp	0x444	; 0x444 <_exit>

0000008e <__bad_interrupt>:
  8e:	0c 94 00 00 	jmp	0	; 0x0 <__vectors>

00000092 <main>:
 * Author : atef
 */ 
#include "APP/app.h"

int main(void)
{  DIO_InitPin(PB,0,OUTPUT);
  92:	40 e0       	ldi	r20, 0x00	; 0
  94:	60 e0       	ldi	r22, 0x00	; 0
  96:	81 e0       	ldi	r24, 0x01	; 1
  98:	0e 94 54 00 	call	0xa8	; 0xa8 <DIO_InitPin>
	DIO_WritePin(PB,0,HIGH);
  9c:	41 e0       	ldi	r20, 0x01	; 1
  9e:	60 e0       	ldi	r22, 0x00	; 0
  a0:	81 e0       	ldi	r24, 0x01	; 1
  a2:	0e 94 56 00 	call	0xac	; 0xac <DIO_WritePin>
  a6:	ff cf       	rjmp	.-2      	; 0xa6 <main+0x14>

000000a8 <DIO_InitPin>:
  a8:	82 e0       	ldi	r24, 0x02	; 2
  aa:	08 95       	ret

000000ac <DIO_WritePin>:
  ac:	88 30       	cpi	r24, 0x08	; 8
  ae:	08 f0       	brcs	.+2      	; 0xb2 <DIO_WritePin+0x6>
  b0:	79 c0       	rjmp	.+242    	; 0x1a4 <DIO_WritePin+0xf8>
  b2:	44 23       	and	r20, r20
  b4:	d9 f1       	breq	.+118    	; 0x12c <DIO_WritePin+0x80>
  b6:	41 30       	cpi	r20, 0x01	; 1
  b8:	09 f0       	breq	.+2      	; 0xbc <DIO_WritePin+0x10>
  ba:	76 c0       	rjmp	.+236    	; 0x1a8 <DIO_WritePin+0xfc>
  bc:	81 30       	cpi	r24, 0x01	; 1
  be:	91 f0       	breq	.+36     	; 0xe4 <DIO_WritePin+0x38>
  c0:	28 f0       	brcs	.+10     	; 0xcc <DIO_WritePin+0x20>
  c2:	82 30       	cpi	r24, 0x02	; 2
  c4:	d9 f0       	breq	.+54     	; 0xfc <DIO_WritePin+0x50>
  c6:	83 30       	cpi	r24, 0x03	; 3
  c8:	29 f1       	breq	.+74     	; 0x114 <DIO_WritePin+0x68>
  ca:	70 c0       	rjmp	.+224    	; 0x1ac <DIO_WritePin+0x100>
  cc:	2b b3       	in	r18, 0x1b	; 27
  ce:	81 e0       	ldi	r24, 0x01	; 1
  d0:	90 e0       	ldi	r25, 0x00	; 0
  d2:	02 c0       	rjmp	.+4      	; 0xd8 <DIO_WritePin+0x2c>
  d4:	88 0f       	add	r24, r24
  d6:	99 1f       	adc	r25, r25
  d8:	6a 95       	dec	r22
  da:	e2 f7       	brpl	.-8      	; 0xd4 <DIO_WritePin+0x28>
  dc:	82 2b       	or	r24, r18
  de:	8b bb       	out	0x1b, r24	; 27
  e0:	80 e0       	ldi	r24, 0x00	; 0
  e2:	08 95       	ret
  e4:	28 b3       	in	r18, 0x18	; 24
  e6:	81 e0       	ldi	r24, 0x01	; 1
  e8:	90 e0       	ldi	r25, 0x00	; 0
  ea:	02 c0       	rjmp	.+4      	; 0xf0 <DIO_WritePin+0x44>
  ec:	88 0f       	add	r24, r24
  ee:	99 1f       	adc	r25, r25
  f0:	6a 95       	dec	r22
  f2:	e2 f7       	brpl	.-8      	; 0xec <DIO_WritePin+0x40>
  f4:	82 2b       	or	r24, r18
  f6:	88 bb       	out	0x18, r24	; 24
  f8:	80 e0       	ldi	r24, 0x00	; 0
  fa:	08 95       	ret
  fc:	25 b3       	in	r18, 0x15	; 21
  fe:	81 e0       	ldi	r24, 0x01	; 1
 100:	90 e0       	ldi	r25, 0x00	; 0
 102:	02 c0       	rjmp	.+4      	; 0x108 <DIO_WritePin+0x5c>
 104:	88 0f       	add	r24, r24
 106:	99 1f       	adc	r25, r25
 108:	6a 95       	dec	r22
 10a:	e2 f7       	brpl	.-8      	; 0x104 <DIO_WritePin+0x58>
 10c:	82 2b       	or	r24, r18
 10e:	85 bb       	out	0x15, r24	; 21
 110:	80 e0       	ldi	r24, 0x00	; 0
 112:	08 95       	ret
 114:	22 b3       	in	r18, 0x12	; 18
 116:	81 e0       	ldi	r24, 0x01	; 1
 118:	90 e0       	ldi	r25, 0x00	; 0
 11a:	02 c0       	rjmp	.+4      	; 0x120 <DIO_WritePin+0x74>
 11c:	88 0f       	add	r24, r24
 11e:	99 1f       	adc	r25, r25
 120:	6a 95       	dec	r22
 122:	e2 f7       	brpl	.-8      	; 0x11c <DIO_WritePin+0x70>
 124:	82 2b       	or	r24, r18
 126:	82 bb       	out	0x12, r24	; 18
 128:	80 e0       	ldi	r24, 0x00	; 0
 12a:	08 95       	ret
 12c:	81 30       	cpi	r24, 0x01	; 1
 12e:	99 f0       	breq	.+38     	; 0x156 <DIO_WritePin+0xaa>
 130:	28 f0       	brcs	.+10     	; 0x13c <DIO_WritePin+0x90>
 132:	82 30       	cpi	r24, 0x02	; 2
 134:	e9 f0       	breq	.+58     	; 0x170 <DIO_WritePin+0xc4>
 136:	83 30       	cpi	r24, 0x03	; 3
 138:	41 f1       	breq	.+80     	; 0x18a <DIO_WritePin+0xde>
 13a:	3a c0       	rjmp	.+116    	; 0x1b0 <DIO_WritePin+0x104>
 13c:	2b b3       	in	r18, 0x1b	; 27
 13e:	81 e0       	ldi	r24, 0x01	; 1
 140:	90 e0       	ldi	r25, 0x00	; 0
 142:	02 c0       	rjmp	.+4      	; 0x148 <DIO_WritePin+0x9c>
 144:	88 0f       	add	r24, r24
 146:	99 1f       	adc	r25, r25
 148:	6a 95       	dec	r22
 14a:	e2 f7       	brpl	.-8      	; 0x144 <DIO_WritePin+0x98>
 14c:	80 95       	com	r24
 14e:	82 23       	and	r24, r18
 150:	8b bb       	out	0x1b, r24	; 27
 152:	80 e0       	ldi	r24, 0x00	; 0
 154:	08 95       	ret
 156:	28 b3       	in	r18, 0x18	; 24
 158:	81 e0       	ldi	r24, 0x01	; 1
 15a:	90 e0       	ldi	r25, 0x00	; 0
 15c:	02 c0       	rjmp	.+4      	; 0x162 <DIO_WritePin+0xb6>
 15e:	88 0f       	add	r24, r24
 160:	99 1f       	adc	r25, r25
 162:	6a 95       	dec	r22
 164:	e2 f7       	brpl	.-8      	; 0x15e <DIO_WritePin+0xb2>
 166:	80 95       	com	r24
 168:	82 23       	and	r24, r18
 16a:	88 bb       	out	0x18, r24	; 24
 16c:	80 e0       	ldi	r24, 0x00	; 0
 16e:	08 95       	ret
 170:	25 b3       	in	r18, 0x15	; 21
 172:	81 e0       	ldi	r24, 0x01	; 1
 174:	90 e0       	ldi	r25, 0x00	; 0
 176:	02 c0       	rjmp	.+4      	; 0x17c <DIO_WritePin+0xd0>
 178:	88 0f       	add	r24, r24
 17a:	99 1f       	adc	r25, r25
 17c:	6a 95       	dec	r22
 17e:	e2 f7       	brpl	.-8      	; 0x178 <DIO_WritePin+0xcc>
 180:	80 95       	com	r24
 182:	82 23       	and	r24, r18
 184:	85 bb       	out	0x15, r24	; 21
 186:	80 e0       	ldi	r24, 0x00	; 0
 188:	08 95       	ret
 18a:	22 b3       	in	r18, 0x12	; 18
 18c:	81 e0       	ldi	r24, 0x01	; 1
 18e:	90 e0       	ldi	r25, 0x00	; 0
 190:	02 c0       	rjmp	.+4      	; 0x196 <DIO_WritePin+0xea>
 192:	88 0f       	add	r24, r24
 194:	99 1f       	adc	r25, r25
 196:	6a 95       	dec	r22
 198:	e2 f7       	brpl	.-8      	; 0x192 <DIO_WritePin+0xe6>
 19a:	80 95       	com	r24
 19c:	82 23       	and	r24, r18
 19e:	82 bb       	out	0x12, r24	; 18
 1a0:	80 e0       	ldi	r24, 0x00	; 0
 1a2:	08 95       	ret
 1a4:	82 e0       	ldi	r24, 0x02	; 2
 1a6:	08 95       	ret
 1a8:	83 e0       	ldi	r24, 0x03	; 3
 1aa:	08 95       	ret
 1ac:	81 e0       	ldi	r24, 0x01	; 1
 1ae:	08 95       	ret
 1b0:	81 e0       	ldi	r24, 0x01	; 1
 1b2:	08 95       	ret

000001b4 <__vector_1>:
 1b4:	1f 92       	push	r1
 1b6:	0f 92       	push	r0
 1b8:	0f b6       	in	r0, 0x3f	; 63
 1ba:	0f 92       	push	r0
 1bc:	11 24       	eor	r1, r1
 1be:	2f 93       	push	r18
 1c0:	3f 93       	push	r19
 1c2:	4f 93       	push	r20
 1c4:	5f 93       	push	r21
 1c6:	6f 93       	push	r22
 1c8:	7f 93       	push	r23
 1ca:	8f 93       	push	r24
 1cc:	9f 93       	push	r25
 1ce:	af 93       	push	r26
 1d0:	bf 93       	push	r27
 1d2:	ef 93       	push	r30
 1d4:	ff 93       	push	r31
 1d6:	e0 91 64 00 	lds	r30, 0x0064	; 0x800064 <INT0_Fptr>
 1da:	f0 91 65 00 	lds	r31, 0x0065	; 0x800065 <INT0_Fptr+0x1>
 1de:	30 97       	sbiw	r30, 0x00	; 0
 1e0:	09 f0       	breq	.+2      	; 0x1e4 <__vector_1+0x30>
 1e2:	09 95       	icall
 1e4:	ff 91       	pop	r31
 1e6:	ef 91       	pop	r30
 1e8:	bf 91       	pop	r27
 1ea:	af 91       	pop	r26
 1ec:	9f 91       	pop	r25
 1ee:	8f 91       	pop	r24
 1f0:	7f 91       	pop	r23
 1f2:	6f 91       	pop	r22
 1f4:	5f 91       	pop	r21
 1f6:	4f 91       	pop	r20
 1f8:	3f 91       	pop	r19
 1fa:	2f 91       	pop	r18
 1fc:	0f 90       	pop	r0
 1fe:	0f be       	out	0x3f, r0	; 63
 200:	0f 90       	pop	r0
 202:	1f 90       	pop	r1
 204:	18 95       	reti

00000206 <__vector_2>:
 206:	1f 92       	push	r1
 208:	0f 92       	push	r0
 20a:	0f b6       	in	r0, 0x3f	; 63
 20c:	0f 92       	push	r0
 20e:	11 24       	eor	r1, r1
 210:	2f 93       	push	r18
 212:	3f 93       	push	r19
 214:	4f 93       	push	r20
 216:	5f 93       	push	r21
 218:	6f 93       	push	r22
 21a:	7f 93       	push	r23
 21c:	8f 93       	push	r24
 21e:	9f 93       	push	r25
 220:	af 93       	push	r26
 222:	bf 93       	push	r27
 224:	ef 93       	push	r30
 226:	ff 93       	push	r31
 228:	e0 91 62 00 	lds	r30, 0x0062	; 0x800062 <INT1_Fptr>
 22c:	f0 91 63 00 	lds	r31, 0x0063	; 0x800063 <INT1_Fptr+0x1>
 230:	30 97       	sbiw	r30, 0x00	; 0
 232:	09 f0       	breq	.+2      	; 0x236 <__vector_2+0x30>
 234:	09 95       	icall
 236:	ff 91       	pop	r31
 238:	ef 91       	pop	r30
 23a:	bf 91       	pop	r27
 23c:	af 91       	pop	r26
 23e:	9f 91       	pop	r25
 240:	8f 91       	pop	r24
 242:	7f 91       	pop	r23
 244:	6f 91       	pop	r22
 246:	5f 91       	pop	r21
 248:	4f 91       	pop	r20
 24a:	3f 91       	pop	r19
 24c:	2f 91       	pop	r18
 24e:	0f 90       	pop	r0
 250:	0f be       	out	0x3f, r0	; 63
 252:	0f 90       	pop	r0
 254:	1f 90       	pop	r1
 256:	18 95       	reti

00000258 <__vector_3>:
 258:	1f 92       	push	r1
 25a:	0f 92       	push	r0
 25c:	0f b6       	in	r0, 0x3f	; 63
 25e:	0f 92       	push	r0
 260:	11 24       	eor	r1, r1
 262:	2f 93       	push	r18
 264:	3f 93       	push	r19
 266:	4f 93       	push	r20
 268:	5f 93       	push	r21
 26a:	6f 93       	push	r22
 26c:	7f 93       	push	r23
 26e:	8f 93       	push	r24
 270:	9f 93       	push	r25
 272:	af 93       	push	r26
 274:	bf 93       	push	r27
 276:	ef 93       	push	r30
 278:	ff 93       	push	r31
 27a:	e0 91 60 00 	lds	r30, 0x0060	; 0x800060 <__DATA_REGION_ORIGIN__>
 27e:	f0 91 61 00 	lds	r31, 0x0061	; 0x800061 <__DATA_REGION_ORIGIN__+0x1>
 282:	30 97       	sbiw	r30, 0x00	; 0
 284:	09 f0       	breq	.+2      	; 0x288 <__vector_3+0x30>
 286:	09 95       	icall
 288:	ff 91       	pop	r31
 28a:	ef 91       	pop	r30
 28c:	bf 91       	pop	r27
 28e:	af 91       	pop	r26
 290:	9f 91       	pop	r25
 292:	8f 91       	pop	r24
 294:	7f 91       	pop	r23
 296:	6f 91       	pop	r22
 298:	5f 91       	pop	r21
 29a:	4f 91       	pop	r20
 29c:	3f 91       	pop	r19
 29e:	2f 91       	pop	r18
 2a0:	0f 90       	pop	r0
 2a2:	0f be       	out	0x3f, r0	; 63
 2a4:	0f 90       	pop	r0
 2a6:	1f 90       	pop	r1
 2a8:	18 95       	reti

000002aa <__vector_11>:
 2aa:	1f 92       	push	r1
 2ac:	0f 92       	push	r0
 2ae:	0f b6       	in	r0, 0x3f	; 63
 2b0:	0f 92       	push	r0
 2b2:	11 24       	eor	r1, r1
 2b4:	2f 93       	push	r18
 2b6:	3f 93       	push	r19
 2b8:	4f 93       	push	r20
 2ba:	5f 93       	push	r21
 2bc:	6f 93       	push	r22
 2be:	7f 93       	push	r23
 2c0:	8f 93       	push	r24
 2c2:	9f 93       	push	r25
 2c4:	af 93       	push	r26
 2c6:	bf 93       	push	r27
 2c8:	ef 93       	push	r30
 2ca:	ff 93       	push	r31
 2cc:	e0 91 6e 00 	lds	r30, 0x006E	; 0x80006e <Timer0_OVF_Fptr>
 2d0:	f0 91 6f 00 	lds	r31, 0x006F	; 0x80006f <Timer0_OVF_Fptr+0x1>
 2d4:	30 97       	sbiw	r30, 0x00	; 0
 2d6:	09 f0       	breq	.+2      	; 0x2da <__vector_11+0x30>
 2d8:	09 95       	icall
 2da:	ff 91       	pop	r31
 2dc:	ef 91       	pop	r30
 2de:	bf 91       	pop	r27
 2e0:	af 91       	pop	r26
 2e2:	9f 91       	pop	r25
 2e4:	8f 91       	pop	r24
 2e6:	7f 91       	pop	r23
 2e8:	6f 91       	pop	r22
 2ea:	5f 91       	pop	r21
 2ec:	4f 91       	pop	r20
 2ee:	3f 91       	pop	r19
 2f0:	2f 91       	pop	r18
 2f2:	0f 90       	pop	r0
 2f4:	0f be       	out	0x3f, r0	; 63
 2f6:	0f 90       	pop	r0
 2f8:	1f 90       	pop	r1
 2fa:	18 95       	reti

000002fc <__vector_9>:
 2fc:	1f 92       	push	r1
 2fe:	0f 92       	push	r0
 300:	0f b6       	in	r0, 0x3f	; 63
 302:	0f 92       	push	r0
 304:	11 24       	eor	r1, r1
 306:	2f 93       	push	r18
 308:	3f 93       	push	r19
 30a:	4f 93       	push	r20
 30c:	5f 93       	push	r21
 30e:	6f 93       	push	r22
 310:	7f 93       	push	r23
 312:	8f 93       	push	r24
 314:	9f 93       	push	r25
 316:	af 93       	push	r26
 318:	bf 93       	push	r27
 31a:	ef 93       	push	r30
 31c:	ff 93       	push	r31
 31e:	e0 91 6c 00 	lds	r30, 0x006C	; 0x80006c <Timer1_OVF_Fptr>
 322:	f0 91 6d 00 	lds	r31, 0x006D	; 0x80006d <Timer1_OVF_Fptr+0x1>
 326:	30 97       	sbiw	r30, 0x00	; 0
 328:	09 f0       	breq	.+2      	; 0x32c <__vector_9+0x30>
 32a:	09 95       	icall
 32c:	ff 91       	pop	r31
 32e:	ef 91       	pop	r30
 330:	bf 91       	pop	r27
 332:	af 91       	pop	r26
 334:	9f 91       	pop	r25
 336:	8f 91       	pop	r24
 338:	7f 91       	pop	r23
 33a:	6f 91       	pop	r22
 33c:	5f 91       	pop	r21
 33e:	4f 91       	pop	r20
 340:	3f 91       	pop	r19
 342:	2f 91       	pop	r18
 344:	0f 90       	pop	r0
 346:	0f be       	out	0x3f, r0	; 63
 348:	0f 90       	pop	r0
 34a:	1f 90       	pop	r1
 34c:	18 95       	reti

0000034e <__vector_8>:
 34e:	1f 92       	push	r1
 350:	0f 92       	push	r0
 352:	0f b6       	in	r0, 0x3f	; 63
 354:	0f 92       	push	r0
 356:	11 24       	eor	r1, r1
 358:	2f 93       	push	r18
 35a:	3f 93       	push	r19
 35c:	4f 93       	push	r20
 35e:	5f 93       	push	r21
 360:	6f 93       	push	r22
 362:	7f 93       	push	r23
 364:	8f 93       	push	r24
 366:	9f 93       	push	r25
 368:	af 93       	push	r26
 36a:	bf 93       	push	r27
 36c:	ef 93       	push	r30
 36e:	ff 93       	push	r31
 370:	e0 91 6a 00 	lds	r30, 0x006A	; 0x80006a <Timer1_OCB_Fptr>
 374:	f0 91 6b 00 	lds	r31, 0x006B	; 0x80006b <Timer1_OCB_Fptr+0x1>
 378:	30 97       	sbiw	r30, 0x00	; 0
 37a:	09 f0       	breq	.+2      	; 0x37e <__vector_8+0x30>
 37c:	09 95       	icall
 37e:	ff 91       	pop	r31
 380:	ef 91       	pop	r30
 382:	bf 91       	pop	r27
 384:	af 91       	pop	r26
 386:	9f 91       	pop	r25
 388:	8f 91       	pop	r24
 38a:	7f 91       	pop	r23
 38c:	6f 91       	pop	r22
 38e:	5f 91       	pop	r21
 390:	4f 91       	pop	r20
 392:	3f 91       	pop	r19
 394:	2f 91       	pop	r18
 396:	0f 90       	pop	r0
 398:	0f be       	out	0x3f, r0	; 63
 39a:	0f 90       	pop	r0
 39c:	1f 90       	pop	r1
 39e:	18 95       	reti

000003a0 <__vector_6>:
 3a0:	1f 92       	push	r1
 3a2:	0f 92       	push	r0
 3a4:	0f b6       	in	r0, 0x3f	; 63
 3a6:	0f 92       	push	r0
 3a8:	11 24       	eor	r1, r1
 3aa:	2f 93       	push	r18
 3ac:	3f 93       	push	r19
 3ae:	4f 93       	push	r20
 3b0:	5f 93       	push	r21
 3b2:	6f 93       	push	r22
 3b4:	7f 93       	push	r23
 3b6:	8f 93       	push	r24
 3b8:	9f 93       	push	r25
 3ba:	af 93       	push	r26
 3bc:	bf 93       	push	r27
 3be:	ef 93       	push	r30
 3c0:	ff 93       	push	r31
 3c2:	e0 91 68 00 	lds	r30, 0x0068	; 0x800068 <Timer1_ICU_Fptr>
 3c6:	f0 91 69 00 	lds	r31, 0x0069	; 0x800069 <Timer1_ICU_Fptr+0x1>
 3ca:	30 97       	sbiw	r30, 0x00	; 0
 3cc:	09 f0       	breq	.+2      	; 0x3d0 <__vector_6+0x30>
 3ce:	09 95       	icall
 3d0:	ff 91       	pop	r31
 3d2:	ef 91       	pop	r30
 3d4:	bf 91       	pop	r27
 3d6:	af 91       	pop	r26
 3d8:	9f 91       	pop	r25
 3da:	8f 91       	pop	r24
 3dc:	7f 91       	pop	r23
 3de:	6f 91       	pop	r22
 3e0:	5f 91       	pop	r21
 3e2:	4f 91       	pop	r20
 3e4:	3f 91       	pop	r19
 3e6:	2f 91       	pop	r18
 3e8:	0f 90       	pop	r0
 3ea:	0f be       	out	0x3f, r0	; 63
 3ec:	0f 90       	pop	r0
 3ee:	1f 90       	pop	r1
 3f0:	18 95       	reti

000003f2 <__vector_5>:
 3f2:	1f 92       	push	r1
 3f4:	0f 92       	push	r0
 3f6:	0f b6       	in	r0, 0x3f	; 63
 3f8:	0f 92       	push	r0
 3fa:	11 24       	eor	r1, r1
 3fc:	2f 93       	push	r18
 3fe:	3f 93       	push	r19
 400:	4f 93       	push	r20
 402:	5f 93       	push	r21
 404:	6f 93       	push	r22
 406:	7f 93       	push	r23
 408:	8f 93       	push	r24
 40a:	9f 93       	push	r25
 40c:	af 93       	push	r26
 40e:	bf 93       	push	r27
 410:	ef 93       	push	r30
 412:	ff 93       	push	r31
 414:	e0 91 66 00 	lds	r30, 0x0066	; 0x800066 <Timer2_OVF_Fptr>
 418:	f0 91 67 00 	lds	r31, 0x0067	; 0x800067 <Timer2_OVF_Fptr+0x1>
 41c:	30 97       	sbiw	r30, 0x00	; 0
 41e:	09 f0       	breq	.+2      	; 0x422 <__EEPROM_REGION_LENGTH__+0x22>
 420:	09 95       	icall
 422:	ff 91       	pop	r31
 424:	ef 91       	pop	r30
 426:	bf 91       	pop	r27
 428:	af 91       	pop	r26
 42a:	9f 91       	pop	r25
 42c:	8f 91       	pop	r24
 42e:	7f 91       	pop	r23
 430:	6f 91       	pop	r22
 432:	5f 91       	pop	r21
 434:	4f 91       	pop	r20
 436:	3f 91       	pop	r19
 438:	2f 91       	pop	r18
 43a:	0f 90       	pop	r0
 43c:	0f be       	out	0x3f, r0	; 63
 43e:	0f 90       	pop	r0
 440:	1f 90       	pop	r1
 442:	18 95       	reti

00000444 <_exit>:
 444:	f8 94       	cli

00000446 <__stop_program>:
 446:	ff cf       	rjmp	.-2      	; 0x446 <__stop_program>
